; ModuleID = 'bench/linux/original/iommu-sysfs.ll'
source_filename = "bench/linux/original/iommu-sysfs.ll"
target datalayout = "e-m:e-p270:32:32-p271:32:32-p272:64:64-i64:64-i128:128-f80:128-n8:16:32:64-S128"
target triple = "x86_64-unknown-linux-gnu"

module asm ".section\09\22.initcall2.init\22, \22a\22\09\09"
module asm "__initcall__kmod_iommu_sysfs__348_47_iommu_dev_init2:\09\09\09"
module asm ".long\09iommu_dev_init - .\09"
module asm ".previous\09\09\09\09\09"
module asm ".section \22.export_symbol\22,\22a\22 ; __export_symbol_iommu_device_sysfs_add: ; .asciz \22GPL\22 ; .asciz \22\22 ; .balign 8 ; .quad iommu_device_sysfs_add ; .previous"
module asm ".section \22.export_symbol\22,\22a\22 ; __export_symbol_iommu_device_sysfs_remove: ; .asciz \22GPL\22 ; .asciz \22\22 ; .balign 8 ; .quad iommu_device_sysfs_remove ; .previous"

%struct.class = type { ptr, ptr, ptr, ptr, ptr, ptr, ptr, ptr, ptr, ptr, ptr, ptr }
%struct.attribute_group = type { ptr, ptr, ptr, ptr, ptr }
%struct.__va_list_tag = type { i32, i32, ptr, ptr }

@__UNIQUE_ID___addressable_iommu_dev_init349 = internal global ptr @iommu_dev_init, section ".discard.addressable", align 8
@iommu_class = internal global %struct.class { ptr @.str.1, ptr null, ptr @dev_groups, ptr null, ptr null, ptr null, ptr @release_device, ptr null, ptr null, ptr null, ptr null, ptr null }, align 8
@__UNIQUE_ID___addressable_iommu_device_sysfs_add350 = internal global ptr @iommu_device_sysfs_add, section ".discard.addressable", align 8
@__UNIQUE_ID___addressable_iommu_device_sysfs_remove351 = internal global ptr @iommu_device_sysfs_remove, section ".discard.addressable", align 8
@.str = private unnamed_addr constant [8 x i8] c"devices\00", align 1
@.str.1 = private unnamed_addr constant [6 x i8] c"iommu\00", align 1
@kmalloc_caches = external dso_local local_unnamed_addr global [3 x [14 x ptr]], align 16
@dev_groups = internal global [2 x ptr] [ptr @devices_attr_group, ptr null], align 16
@devices_attr_group = internal constant %struct.attribute_group { ptr @.str, ptr null, ptr null, ptr @devices_attr, ptr null }, align 8
@devices_attr = internal global [1 x ptr] zeroinitializer, align 8
@llvm.compiler.used = appending global [3 x ptr] [ptr @__UNIQUE_ID___addressable_iommu_dev_init349, ptr @__UNIQUE_ID___addressable_iommu_device_sysfs_add350, ptr @__UNIQUE_ID___addressable_iommu_device_sysfs_remove351], section "llvm.metadata"

; Function Attrs: cold fn_ret_thunk_extern nounwind null_pointer_is_valid optsize
define internal i32 @iommu_dev_init() #0 section ".init.text" align 16 {
  %1 = tail call i32 @class_register(ptr noundef nonnull @iommu_class) #7
  ret i32 %1
}

; Function Attrs: fn_ret_thunk_extern nounwind null_pointer_is_valid
define dso_local i32 @iommu_device_sysfs_add(ptr noundef %0, ptr noundef %1, ptr noundef %2, ptr noundef %3, ...) #1 align 16 {
  %5 = alloca [1 x %struct.__va_list_tag], align 16
  call void @llvm.lifetime.start.p0(i64 24, ptr nonnull %5) #7
  %6 = load ptr, ptr getelementptr inbounds ([3 x [14 x ptr]], ptr @kmalloc_caches, i64 0, i64 0, i64 10), align 16
  %7 = tail call noalias noundef align 8 dereferenceable_or_null(728) ptr @kmalloc_trace(ptr noundef %6, i32 noundef 3520, i64 noundef 728) #8
  %8 = getelementptr inbounds i8, ptr %0, i64 32
  store ptr %7, ptr %8, align 8
  %9 = icmp eq ptr %7, null
  br i1 %9, label %30, label %10

10:                                               ; preds = %4
  call void @llvm.memset.p0.i64(ptr noundef nonnull align 16 dereferenceable(24) %5, i8 0, i64 24, i1 false), !annotation !5
  tail call void @device_initialize(ptr noundef nonnull %7) #7
  %11 = load ptr, ptr %8, align 8
  %12 = getelementptr inbounds i8, ptr %11, i64 672
  store ptr @iommu_class, ptr %12, align 8
  %13 = load ptr, ptr %8, align 8
  %14 = getelementptr inbounds i8, ptr %13, i64 64
  store ptr %1, ptr %14, align 8
  %15 = load ptr, ptr %8, align 8
  %16 = getelementptr inbounds i8, ptr %15, i64 680
  store ptr %2, ptr %16, align 8
  call void @llvm.va_start(ptr nonnull %5)
  %17 = load ptr, ptr %8, align 8
  %18 = call i32 @kobject_set_name_vargs(ptr noundef %17, ptr noundef %3, ptr noundef nonnull %5) #7
  call void @llvm.va_end(ptr nonnull %5)
  %19 = icmp eq i32 %18, 0
  br i1 %19, label %20, label %27

20:                                               ; preds = %10
  %21 = load ptr, ptr %8, align 8
  %22 = call i32 @device_add(ptr noundef %21) #7
  %23 = icmp eq i32 %22, 0
  br i1 %23, label %24, label %27

24:                                               ; preds = %20
  %25 = load ptr, ptr %8, align 8
  %26 = getelementptr inbounds i8, ptr %25, i64 120
  store ptr %0, ptr %26, align 8
  br label %30

27:                                               ; preds = %20, %10
  %28 = phi i32 [ %18, %10 ], [ %22, %20 ]
  %29 = load ptr, ptr %8, align 8
  call void @put_device(ptr noundef %29) #7
  br label %30

30:                                               ; preds = %27, %24, %4
  %31 = phi i32 [ %28, %27 ], [ 0, %24 ], [ -12, %4 ]
  call void @llvm.lifetime.end.p0(i64 24, ptr nonnull %5) #7
  ret i32 %31
}

; Function Attrs: mustprogress nocallback nofree nosync nounwind willreturn memory(argmem: readwrite)
declare void @llvm.lifetime.start.p0(i64 immarg, ptr nocapture) #2

; Function Attrs: mustprogress nocallback nofree nounwind willreturn memory(argmem: write)
declare void @llvm.memset.p0.i64(ptr nocapture writeonly, i8, i64, i1 immarg) #3

; Function Attrs: null_pointer_is_valid
declare dso_local void @device_initialize(ptr noundef) local_unnamed_addr #4

; Function Attrs: mustprogress nocallback nofree nosync nounwind willreturn
declare void @llvm.va_start(ptr) #5

; Function Attrs: null_pointer_is_valid
declare dso_local i32 @kobject_set_name_vargs(ptr noundef, ptr noundef, ptr noundef) local_unnamed_addr #4

; Function Attrs: mustprogress nocallback nofree nosync nounwind willreturn
declare void @llvm.va_end(ptr) #5

; Function Attrs: null_pointer_is_valid
declare dso_local i32 @device_add(ptr noundef) local_unnamed_addr #4

; Function Attrs: null_pointer_is_valid
declare dso_local void @put_device(ptr noundef) local_unnamed_addr #4

; Function Attrs: mustprogress nocallback nofree nosync nounwind willreturn memory(argmem: readwrite)
declare void @llvm.lifetime.end.p0(i64 immarg, ptr nocapture) #2

; Function Attrs: fn_ret_thunk_extern nounwind null_pointer_is_valid
define dso_local void @iommu_device_sysfs_remove(ptr nocapture noundef %0) #1 align 16 {
  %2 = getelementptr inbounds i8, ptr %0, i64 32
  %3 = load ptr, ptr %2, align 8
  %4 = getelementptr inbounds i8, ptr %3, i64 120
  store ptr null, ptr %4, align 8
  %5 = load ptr, ptr %2, align 8
  tail call void @device_unregister(ptr noundef %5) #7
  store ptr null, ptr %2, align 8
  ret void
}

; Function Attrs: null_pointer_is_valid
declare dso_local void @device_unregister(ptr noundef) local_unnamed_addr #4

; Function Attrs: fn_ret_thunk_extern nounwind null_pointer_is_valid
define dso_local i32 @iommu_device_link(ptr nocapture noundef readonly %0, ptr noundef %1) local_unnamed_addr #1 align 16 {
  %3 = getelementptr inbounds i8, ptr %0, i64 32
  %4 = load ptr, ptr %3, align 8
  %5 = getelementptr inbounds i8, ptr %1, i64 80
  %6 = load ptr, ptr %5, align 8
  %7 = icmp eq ptr %6, null
  br i1 %7, label %8, label %10

8:                                                ; preds = %2
  %9 = load ptr, ptr %1, align 8
  br label %10

10:                                               ; preds = %8, %2
  %11 = phi ptr [ %9, %8 ], [ %6, %2 ]
  %12 = tail call i32 @sysfs_add_link_to_group(ptr noundef %4, ptr noundef nonnull @.str, ptr noundef %1, ptr noundef %11) #7
  %13 = icmp eq i32 %12, 0
  br i1 %13, label %14, label %26

14:                                               ; preds = %10
  %15 = load ptr, ptr %3, align 8
  %16 = tail call i32 @sysfs_create_link_nowarn(ptr noundef %1, ptr noundef %15, ptr noundef nonnull @.str.1) #7
  %17 = icmp eq i32 %16, 0
  br i1 %17, label %26, label %18

18:                                               ; preds = %14
  %19 = load ptr, ptr %3, align 8
  %20 = load ptr, ptr %5, align 8
  %21 = icmp eq ptr %20, null
  br i1 %21, label %22, label %24

22:                                               ; preds = %18
  %23 = load ptr, ptr %1, align 8
  br label %24

24:                                               ; preds = %22, %18
  %25 = phi ptr [ %23, %22 ], [ %20, %18 ]
  tail call void @sysfs_remove_link_from_group(ptr noundef %19, ptr noundef nonnull @.str, ptr noundef %25) #7
  br label %26

26:                                               ; preds = %24, %14, %10
  %27 = phi i32 [ %12, %10 ], [ %16, %24 ], [ 0, %14 ]
  ret i32 %27
}

; Function Attrs: null_pointer_is_valid
declare dso_local i32 @sysfs_add_link_to_group(ptr noundef, ptr noundef, ptr noundef, ptr noundef) local_unnamed_addr #4

; Function Attrs: null_pointer_is_valid
declare dso_local i32 @sysfs_create_link_nowarn(ptr noundef, ptr noundef, ptr noundef) local_unnamed_addr #4

; Function Attrs: null_pointer_is_valid
declare dso_local void @sysfs_remove_link_from_group(ptr noundef, ptr noundef, ptr noundef) local_unnamed_addr #4

; Function Attrs: fn_ret_thunk_extern nounwind null_pointer_is_valid
define dso_local void @iommu_device_unlink(ptr nocapture noundef readonly %0, ptr noundef %1) local_unnamed_addr #1 align 16 {
  tail call void @sysfs_remove_link(ptr noundef %1, ptr noundef nonnull @.str.1) #7
  %3 = getelementptr inbounds i8, ptr %0, i64 32
  %4 = load ptr, ptr %3, align 8
  %5 = getelementptr inbounds i8, ptr %1, i64 80
  %6 = load ptr, ptr %5, align 8
  %7 = icmp eq ptr %6, null
  br i1 %7, label %8, label %10

8:                                                ; preds = %2
  %9 = load ptr, ptr %1, align 8
  br label %10

10:                                               ; preds = %8, %2
  %11 = phi ptr [ %9, %8 ], [ %6, %2 ]
  tail call void @sysfs_remove_link_from_group(ptr noundef %4, ptr noundef nonnull @.str, ptr noundef %11) #7
  ret void
}

; Function Attrs: null_pointer_is_valid
declare dso_local void @sysfs_remove_link(ptr noundef, ptr noundef) local_unnamed_addr #4

; Function Attrs: null_pointer_is_valid
declare dso_local i32 @class_register(ptr noundef) local_unnamed_addr #4

; Function Attrs: null_pointer_is_valid allocsize(2)
declare dso_local noalias ptr @kmalloc_trace(ptr noundef, i32 noundef, i64 noundef) local_unnamed_addr #6

; Function Attrs: fn_ret_thunk_extern nounwind null_pointer_is_valid
define internal void @release_device(ptr noundef %0) #1 align 16 {
  tail call void @kfree(ptr noundef %0) #7
  ret void
}

; Function Attrs: null_pointer_is_valid
declare dso_local void @kfree(ptr noundef) local_unnamed_addr #4


!llvm.module.flags = !{!0, !1, !2, !3, !4}

!0 = !{i32 1, !"wchar_size", i32 2}
!1 = !{i32 8, !"cf-protection-branch", i32 1}
!2 = !{i32 4, !"function_return_thunk_extern", i32 1}
!3 = !{i32 4, !"indirect_branch_cs_prefix", i32 1}
!4 = !{i32 4, !"SkipRaxSetup", i32 1}
!5 = !{!"auto-init"}
